target datalayout = "e-m:e-p270:32:32-p271:32:32-p272:64:64-i64:64-i128:128-f80:128-n8:16:32:64-S128"
target triple = "x86_64-pc-linux-gnu"

%struct.timeval = type { i64, i64 }
%struct.pollfd = type { i32, i16, i16 }

; Function Attrs: nounwind uwtable
define dso_local i32 @Curl_wait_ms(i64 noundef %0) #0 {
  %2 = alloca i32, align 4
  %3 = alloca i64, align 8
  %4 = alloca i32, align 4
  %5 = alloca i32, align 4
  %6 = alloca %struct.timeval, align 8
  store i64 %0, ptr %3, align 8, !tbaa !4
  call void @llvm.lifetime.start.p0(i64 4, ptr %4) #6
  store i32 0, ptr %4, align 4, !tbaa !8
  %7 = load i64, ptr %3, align 8, !tbaa !4
  %8 = icmp ne i64 %7, 0
  br i1 %8, label %10, label %9

9:                                                ; preds = %1
  store i32 0, ptr %2, align 4
  store i32 1, ptr %5, align 4
  br label %33

10:                                               ; preds = %1
  %11 = load i64, ptr %3, align 8, !tbaa !4
  %12 = icmp slt i64 %11, 0
  br i1 %12, label %13, label %15

13:                                               ; preds = %10
  %14 = call ptr @__errno_location() #7
  store i32 22, ptr %14, align 4, !tbaa !8
  store i32 -1, ptr %2, align 4
  store i32 1, ptr %5, align 4
  br label %33

15:                                               ; preds = %10
  call void @llvm.lifetime.start.p0(i64 16, ptr %6) #6
  %16 = load i64, ptr %3, align 8, !tbaa !4
  %17 = call ptr @curlx_mstotv(ptr noundef %6, i64 noundef %16)
  %18 = call i32 @select(i32 noundef 0, ptr noundef null, ptr noundef null, ptr noundef null, ptr noundef %17)
  store i32 %18, ptr %4, align 4, !tbaa !8
  call void @llvm.lifetime.end.p0(i64 16, ptr %6) #6
  %19 = load i32, ptr %4, align 4, !tbaa !8
  %20 = icmp ne i32 %19, 0
  br i1 %20, label %21, label %31

21:                                               ; preds = %15
  %22 = load i32, ptr %4, align 4, !tbaa !8
  %23 = icmp eq i32 %22, -1
  br i1 %23, label %24, label %29

24:                                               ; preds = %21
  %25 = call ptr @__errno_location() #7
  %26 = load i32, ptr %25, align 4, !tbaa !8
  %27 = icmp eq i32 %26, 4
  br i1 %27, label %28, label %29

28:                                               ; preds = %24
  store i32 0, ptr %4, align 4, !tbaa !8
  br label %30

29:                                               ; preds = %24, %21
  store i32 -1, ptr %4, align 4, !tbaa !8
  br label %30

30:                                               ; preds = %29, %28
  br label %31

31:                                               ; preds = %30, %15
  %32 = load i32, ptr %4, align 4, !tbaa !8
  store i32 %32, ptr %2, align 4
  store i32 1, ptr %5, align 4
  br label %33

33:                                               ; preds = %31, %13, %9
  call void @llvm.lifetime.end.p0(i64 4, ptr %4) #6
  %34 = load i32, ptr %2, align 4
  ret i32 %34
}

; Function Attrs: nounwind uwtable
define dso_local i32 @Curl_socket_check(i32 noundef %0, i32 noundef %1, i32 noundef %2, i64 noundef %3) #0 {
  %5 = alloca i32, align 4
  %6 = alloca i32, align 4
  %7 = alloca i32, align 4
  %8 = alloca i32, align 4
  %9 = alloca i64, align 8
  %10 = alloca [3 x %struct.pollfd], align 16
  %11 = alloca i32, align 4
  %12 = alloca i32, align 4
  %13 = alloca i32, align 4
  store i32 %0, ptr %6, align 4, !tbaa !8
  store i32 %1, ptr %7, align 4, !tbaa !8
  store i32 %2, ptr %8, align 4, !tbaa !8
  store i64 %3, ptr %9, align 8, !tbaa !4
  call void @llvm.lifetime.start.p0(i64 24, ptr %10) #6
  call void @llvm.lifetime.start.p0(i64 4, ptr %11) #6
  call void @llvm.lifetime.start.p0(i64 4, ptr %12) #6
  %14 = load i32, ptr %6, align 4, !tbaa !8
  %15 = icmp eq i32 %14, -1
  br i1 %15, label %16, label %25

16:                                               ; preds = %4
  %17 = load i32, ptr %7, align 4, !tbaa !8
  %18 = icmp eq i32 %17, -1
  br i1 %18, label %19, label %25

19:                                               ; preds = %16
  %20 = load i32, ptr %8, align 4, !tbaa !8
  %21 = icmp eq i32 %20, -1
  br i1 %21, label %22, label %25

22:                                               ; preds = %19
  %23 = load i64, ptr %9, align 8, !tbaa !4
  %24 = call i32 @Curl_wait_ms(i64 noundef %23)
  store i32 %24, ptr %5, align 4
  store i32 1, ptr %13, align 4
  br label %181

25:                                               ; preds = %19, %16, %4
  store i32 0, ptr %11, align 4, !tbaa !8
  %26 = load i32, ptr %6, align 4, !tbaa !8
  %27 = icmp ne i32 %26, -1
  br i1 %27, label %28, label %44

28:                                               ; preds = %25
  %29 = load i32, ptr %6, align 4, !tbaa !8
  %30 = load i32, ptr %11, align 4, !tbaa !8
  %31 = sext i32 %30 to i64
  %32 = getelementptr inbounds [3 x %struct.pollfd], ptr %10, i64 0, i64 %31
  %33 = getelementptr inbounds nuw %struct.pollfd, ptr %32, i32 0, i32 0
  store i32 %29, ptr %33, align 8, !tbaa !10
  %34 = load i32, ptr %11, align 4, !tbaa !8
  %35 = sext i32 %34 to i64
  %36 = getelementptr inbounds [3 x %struct.pollfd], ptr %10, i64 0, i64 %35
  %37 = getelementptr inbounds nuw %struct.pollfd, ptr %36, i32 0, i32 1
  store i16 195, ptr %37, align 4, !tbaa !13
  %38 = load i32, ptr %11, align 4, !tbaa !8
  %39 = sext i32 %38 to i64
  %40 = getelementptr inbounds [3 x %struct.pollfd], ptr %10, i64 0, i64 %39
  %41 = getelementptr inbounds nuw %struct.pollfd, ptr %40, i32 0, i32 2
  store i16 0, ptr %41, align 2, !tbaa !14
  %42 = load i32, ptr %11, align 4, !tbaa !8
  %43 = add nsw i32 %42, 1
  store i32 %43, ptr %11, align 4, !tbaa !8
  br label %44

44:                                               ; preds = %28, %25
  %45 = load i32, ptr %7, align 4, !tbaa !8
  %46 = icmp ne i32 %45, -1
  br i1 %46, label %47, label %63

47:                                               ; preds = %44
  %48 = load i32, ptr %7, align 4, !tbaa !8
  %49 = load i32, ptr %11, align 4, !tbaa !8
  %50 = sext i32 %49 to i64
  %51 = getelementptr inbounds [3 x %struct.pollfd], ptr %10, i64 0, i64 %50
  %52 = getelementptr inbounds nuw %struct.pollfd, ptr %51, i32 0, i32 0
  store i32 %48, ptr %52, align 8, !tbaa !10
  %53 = load i32, ptr %11, align 4, !tbaa !8
  %54 = sext i32 %53 to i64
  %55 = getelementptr inbounds [3 x %struct.pollfd], ptr %10, i64 0, i64 %54
  %56 = getelementptr inbounds nuw %struct.pollfd, ptr %55, i32 0, i32 1
  store i16 195, ptr %56, align 4, !tbaa !13
  %57 = load i32, ptr %11, align 4, !tbaa !8
  %58 = sext i32 %57 to i64
  %59 = getelementptr inbounds [3 x %struct.pollfd], ptr %10, i64 0, i64 %58
  %60 = getelementptr inbounds nuw %struct.pollfd, ptr %59, i32 0, i32 2
  store i16 0, ptr %60, align 2, !tbaa !14
  %61 = load i32, ptr %11, align 4, !tbaa !8
  %62 = add nsw i32 %61, 1
  store i32 %62, ptr %11, align 4, !tbaa !8
  br label %63

63:                                               ; preds = %47, %44
  %64 = load i32, ptr %8, align 4, !tbaa !8
  %65 = icmp ne i32 %64, -1
  br i1 %65, label %66, label %82

66:                                               ; preds = %63
  %67 = load i32, ptr %8, align 4, !tbaa !8
  %68 = load i32, ptr %11, align 4, !tbaa !8
  %69 = sext i32 %68 to i64
  %70 = getelementptr inbounds [3 x %struct.pollfd], ptr %10, i64 0, i64 %69
  %71 = getelementptr inbounds nuw %struct.pollfd, ptr %70, i32 0, i32 0
  store i32 %67, ptr %71, align 8, !tbaa !10
  %72 = load i32, ptr %11, align 4, !tbaa !8
  %73 = sext i32 %72 to i64
  %74 = getelementptr inbounds [3 x %struct.pollfd], ptr %10, i64 0, i64 %73
  %75 = getelementptr inbounds nuw %struct.pollfd, ptr %74, i32 0, i32 1
  store i16 262, ptr %75, align 4, !tbaa !13
  %76 = load i32, ptr %11, align 4, !tbaa !8
  %77 = sext i32 %76 to i64
  %78 = getelementptr inbounds [3 x %struct.pollfd], ptr %10, i64 0, i64 %77
  %79 = getelementptr inbounds nuw %struct.pollfd, ptr %78, i32 0, i32 2
  store i16 0, ptr %79, align 2, !tbaa !14
  %80 = load i32, ptr %11, align 4, !tbaa !8
  %81 = add nsw i32 %80, 1
  store i32 %81, ptr %11, align 4, !tbaa !8
  br label %82

82:                                               ; preds = %66, %63
  %83 = getelementptr inbounds [3 x %struct.pollfd], ptr %10, i64 0, i64 0
  %84 = load i32, ptr %11, align 4, !tbaa !8
  %85 = load i64, ptr %9, align 8, !tbaa !4
  %86 = call i32 @Curl_poll(ptr noundef %83, i32 noundef %84, i64 noundef %85)
  store i32 %86, ptr %12, align 4, !tbaa !8
  %87 = load i32, ptr %12, align 4, !tbaa !8
  %88 = icmp sle i32 %87, 0
  br i1 %88, label %89, label %91

89:                                               ; preds = %82
  %90 = load i32, ptr %12, align 4, !tbaa !8
  store i32 %90, ptr %5, align 4
  store i32 1, ptr %13, align 4
  br label %181

91:                                               ; preds = %82
  store i32 0, ptr %12, align 4, !tbaa !8
  store i32 0, ptr %11, align 4, !tbaa !8
  %92 = load i32, ptr %6, align 4, !tbaa !8
  %93 = icmp ne i32 %92, -1
  br i1 %93, label %94, label %121

94:                                               ; preds = %91
  %95 = load i32, ptr %11, align 4, !tbaa !8
  %96 = sext i32 %95 to i64
  %97 = getelementptr inbounds [3 x %struct.pollfd], ptr %10, i64 0, i64 %96
  %98 = getelementptr inbounds nuw %struct.pollfd, ptr %97, i32 0, i32 2
  %99 = load i16, ptr %98, align 2, !tbaa !14
  %100 = sext i16 %99 to i32
  %101 = and i32 %100, 89
  %102 = icmp ne i32 %101, 0
  br i1 %102, label %103, label %106

103:                                              ; preds = %94
  %104 = load i32, ptr %12, align 4, !tbaa !8
  %105 = or i32 %104, 1
  store i32 %105, ptr %12, align 4, !tbaa !8
  br label %106

106:                                              ; preds = %103, %94
  %107 = load i32, ptr %11, align 4, !tbaa !8
  %108 = sext i32 %107 to i64
  %109 = getelementptr inbounds [3 x %struct.pollfd], ptr %10, i64 0, i64 %108
  %110 = getelementptr inbounds nuw %struct.pollfd, ptr %109, i32 0, i32 2
  %111 = load i16, ptr %110, align 2, !tbaa !14
  %112 = sext i16 %111 to i32
  %113 = and i32 %112, 34
  %114 = icmp ne i32 %113, 0
  br i1 %114, label %115, label %118

115:                                              ; preds = %106
  %116 = load i32, ptr %12, align 4, !tbaa !8
  %117 = or i32 %116, 4
  store i32 %117, ptr %12, align 4, !tbaa !8
  br label %118

118:                                              ; preds = %115, %106
  %119 = load i32, ptr %11, align 4, !tbaa !8
  %120 = add nsw i32 %119, 1
  store i32 %120, ptr %11, align 4, !tbaa !8
  br label %121

121:                                              ; preds = %118, %91
  %122 = load i32, ptr %7, align 4, !tbaa !8
  %123 = icmp ne i32 %122, -1
  br i1 %123, label %124, label %151

124:                                              ; preds = %121
  %125 = load i32, ptr %11, align 4, !tbaa !8
  %126 = sext i32 %125 to i64
  %127 = getelementptr inbounds [3 x %struct.pollfd], ptr %10, i64 0, i64 %126
  %128 = getelementptr inbounds nuw %struct.pollfd, ptr %127, i32 0, i32 2
  %129 = load i16, ptr %128, align 2, !tbaa !14
  %130 = sext i16 %129 to i32
  %131 = and i32 %130, 89
  %132 = icmp ne i32 %131, 0
  br i1 %132, label %133, label %136

133:                                              ; preds = %124
  %134 = load i32, ptr %12, align 4, !tbaa !8
  %135 = or i32 %134, 8
  store i32 %135, ptr %12, align 4, !tbaa !8
  br label %136

136:                                              ; preds = %133, %124
  %137 = load i32, ptr %11, align 4, !tbaa !8
  %138 = sext i32 %137 to i64
  %139 = getelementptr inbounds [3 x %struct.pollfd], ptr %10, i64 0, i64 %138
  %140 = getelementptr inbounds nuw %struct.pollfd, ptr %139, i32 0, i32 2
  %141 = load i16, ptr %140, align 2, !tbaa !14
  %142 = sext i16 %141 to i32
  %143 = and i32 %142, 34
  %144 = icmp ne i32 %143, 0
  br i1 %144, label %145, label %148

145:                                              ; preds = %136
  %146 = load i32, ptr %12, align 4, !tbaa !8
  %147 = or i32 %146, 4
  store i32 %147, ptr %12, align 4, !tbaa !8
  br label %148

148:                                              ; preds = %145, %136
  %149 = load i32, ptr %11, align 4, !tbaa !8
  %150 = add nsw i32 %149, 1
  store i32 %150, ptr %11, align 4, !tbaa !8
  br label %151

151:                                              ; preds = %148, %121
  %152 = load i32, ptr %8, align 4, !tbaa !8
  %153 = icmp ne i32 %152, -1
  br i1 %153, label %154, label %179

154:                                              ; preds = %151
  %155 = load i32, ptr %11, align 4, !tbaa !8
  %156 = sext i32 %155 to i64
  %157 = getelementptr inbounds [3 x %struct.pollfd], ptr %10, i64 0, i64 %156
  %158 = getelementptr inbounds nuw %struct.pollfd, ptr %157, i32 0, i32 2
  %159 = load i16, ptr %158, align 2, !tbaa !14
  %160 = sext i16 %159 to i32
  %161 = and i32 %160, 260
  %162 = icmp ne i32 %161, 0
  br i1 %162, label %163, label %166

163:                                              ; preds = %154
  %164 = load i32, ptr %12, align 4, !tbaa !8
  %165 = or i32 %164, 2
  store i32 %165, ptr %12, align 4, !tbaa !8
  br label %166

166:                                              ; preds = %163, %154
  %167 = load i32, ptr %11, align 4, !tbaa !8
  %168 = sext i32 %167 to i64
  %169 = getelementptr inbounds [3 x %struct.pollfd], ptr %10, i64 0, i64 %168
  %170 = getelementptr inbounds nuw %struct.pollfd, ptr %169, i32 0, i32 2
  %171 = load i16, ptr %170, align 2, !tbaa !14
  %172 = sext i16 %171 to i32
  %173 = and i32 %172, 58
  %174 = icmp ne i32 %173, 0
  br i1 %174, label %175, label %178

175:                                              ; preds = %166
  %176 = load i32, ptr %12, align 4, !tbaa !8
  %177 = or i32 %176, 4
  store i32 %177, ptr %12, align 4, !tbaa !8
  br label %178

178:                                              ; preds = %175, %166
  br label %179

179:                                              ; preds = %178, %151
  %180 = load i32, ptr %12, align 4, !tbaa !8
  store i32 %180, ptr %5, align 4
  store i32 1, ptr %13, align 4
  br label %181

181:                                              ; preds = %179, %89, %22
  call void @llvm.lifetime.end.p0(i64 4, ptr %12) #6
  call void @llvm.lifetime.end.p0(i64 4, ptr %11) #6
  call void @llvm.lifetime.end.p0(i64 24, ptr %10) #6
  %182 = load i32, ptr %5, align 4
  ret i32 %182
}